target datalayout = "e-m:e-p270:32:32-p271:32:32-p272:64:64-i64:64-i128:128-f80:128-n8:16:32:64-S128"
target triple = "x86_64-pc-linux-gnu"

; Function Attrs: nounwind uwtable
define hidden ptr @lj_ctype_repr_int64(ptr noundef %0, i64 noundef %1, i32 noundef %2) #0 {
  %4 = alloca ptr, align 8
  %5 = alloca i64, align 8
  %6 = alloca i32, align 4
  %7 = alloca [24 x i8], align 16
  %8 = alloca ptr, align 8
  %9 = alloca i32, align 4
  store ptr %0, ptr %4, align 8, !tbaa !57
  store i64 %1, ptr %5, align 8, !tbaa !47
  store i32 %2, ptr %6, align 4, !tbaa !21
  call void @llvm.lifetime.start.p0(i64 24, ptr %7) #8
  call void @llvm.lifetime.start.p0(i64 8, ptr %8) #8
  %10 = getelementptr inbounds [24 x i8], ptr %7, i64 0, i64 0
  %11 = getelementptr inbounds nuw i8, ptr %10, i64 24
  store ptr %11, ptr %8, align 8, !tbaa !83
  call void @llvm.lifetime.start.p0(i64 4, ptr %9) #8
  store i32 0, ptr %9, align 4, !tbaa !21
  %12 = load ptr, ptr %8, align 8, !tbaa !83
  %13 = getelementptr inbounds i8, ptr %12, i32 -1
  store ptr %13, ptr %8, align 8, !tbaa !83
  store i8 76, ptr %13, align 1, !tbaa !55
  %14 = load ptr, ptr %8, align 8, !tbaa !83
  %15 = getelementptr inbounds i8, ptr %14, i32 -1
  store ptr %15, ptr %8, align 8, !tbaa !83
  store i8 76, ptr %15, align 1, !tbaa !55
  %16 = load i32, ptr %6, align 4, !tbaa !21
  %17 = icmp ne i32 %16, 0
  br i1 %17, label %18, label %21

18:                                               ; preds = %3
  %19 = load ptr, ptr %8, align 8, !tbaa !83
  %20 = getelementptr inbounds i8, ptr %19, i32 -1
  store ptr %20, ptr %8, align 8, !tbaa !83
  store i8 85, ptr %20, align 1, !tbaa !55
  br label %29

21:                                               ; preds = %3
  %22 = load i64, ptr %5, align 8, !tbaa !47
  %23 = icmp slt i64 %22, 0
  br i1 %23, label %24, label %28

24:                                               ; preds = %21
  %25 = load i64, ptr %5, align 8, !tbaa !47
  %26 = xor i64 %25, -1
  %27 = add i64 %26, 1
  store i64 %27, ptr %5, align 8, !tbaa !47
  store i32 1, ptr %9, align 4, !tbaa !21
  br label %28

28:                                               ; preds = %24, %21
  br label %29

29:                                               ; preds = %28, %18
  br label %30

30:                                               ; preds = %37, %29
  %31 = load i64, ptr %5, align 8, !tbaa !47
  %32 = urem i64 %31, 10
  %33 = add i64 48, %32
  %34 = trunc i64 %33 to i8
  %35 = load ptr, ptr %8, align 8, !tbaa !83
  %36 = getelementptr inbounds i8, ptr %35, i32 -1
  store ptr %36, ptr %8, align 8, !tbaa !83
  store i8 %34, ptr %36, align 1, !tbaa !55
  br label %37

37:                                               ; preds = %30
  %38 = load i64, ptr %5, align 8, !tbaa !47
  %39 = udiv i64 %38, 10
  store i64 %39, ptr %5, align 8, !tbaa !47
  %40 = icmp ne i64 %39, 0
  br i1 %40, label %30, label %41, !llvm.loop !85

41:                                               ; preds = %37
  %42 = load i32, ptr %9, align 4, !tbaa !21
  %43 = icmp ne i32 %42, 0
  br i1 %43, label %44, label %47

44:                                               ; preds = %41
  %45 = load ptr, ptr %8, align 8, !tbaa !83
  %46 = getelementptr inbounds i8, ptr %45, i32 -1
  store ptr %46, ptr %8, align 8, !tbaa !83
  store i8 45, ptr %46, align 1, !tbaa !55
  br label %47

47:                                               ; preds = %44, %41
  %48 = load ptr, ptr %4, align 8, !tbaa !57
  %49 = load ptr, ptr %8, align 8, !tbaa !83
  %50 = getelementptr inbounds [24 x i8], ptr %7, i64 0, i64 0
  %51 = getelementptr inbounds nuw i8, ptr %50, i64 24
  %52 = load ptr, ptr %8, align 8, !tbaa !83
  %53 = ptrtoint ptr %51 to i64
  %54 = ptrtoint ptr %52 to i64
  %55 = sub i64 %53, %54
  %56 = call ptr @lj_str_new(ptr noundef %48, ptr noundef %49, i64 noundef %55)
  call void @llvm.lifetime.end.p0(i64 4, ptr %9) #8
  call void @llvm.lifetime.end.p0(i64 8, ptr %8) #8
  call void @llvm.lifetime.end.p0(i64 24, ptr %7) #8
  ret ptr %56
}