; Function Attrs: nounwind uwtable
define hidden ptr @lj_ctype_repr_int64(ptr noundef %0, i64 noundef %1, i32 noundef %2) local_unnamed_addr #0 {
  %4 = alloca [24 x i8], align 16
  call void @llvm.lifetime.start.p0(i64 24, ptr nonnull %4) #14
  %5 = getelementptr inbounds nuw i8, ptr %4, i64 23
  store i8 76, ptr %5, align 1, !tbaa !45
  %6 = getelementptr inbounds nuw i8, ptr %4, i64 22
  store i8 76, ptr %6, align 2, !tbaa !45
  %.not = icmp eq i32 %2, 0
  br i1 %.not, label %9, label %7

7:                                                ; preds = %3
  %8 = getelementptr inbounds nuw i8, ptr %4, i64 21
  store i8 85, ptr %8, align 1, !tbaa !45
  br label %11

9:                                                ; preds = %3
  %10 = icmp sgt i64 %1, -1
  %spec.select = tail call i64 @llvm.abs.i64(i64 %1, i1 false)
  br label %11

11:                                               ; preds = %9, %7
  %.014 = phi i64 [ %1, %7 ], [ %spec.select, %9 ]
  %.013 = phi ptr [ %8, %7 ], [ %6, %9 ]
  %.not19 = phi i1 [ true, %7 ], [ %10, %9 ]
  br label %12

12:                                               ; preds = %12, %11
  %.115 = phi i64 [ %.014, %11 ], [ %17, %12 ]
  %.1 = phi ptr [ %.013, %11 ], [ %16, %12 ]
  %13 = urem i64 %.115, 10
  %14 = trunc nuw nsw i64 %13 to i8
  %15 = or disjoint i8 %14, 48
  %16 = getelementptr inbounds i8, ptr %.1, i64 -1
  store i8 %15, ptr %16, align 1, !tbaa !45
  %17 = udiv i64 %.115, 10
  %.not18 = icmp ult i64 %.115, 10
  br i1 %.not18, label %18, label %12, !llvm.loop !75

18:                                               ; preds = %12
  br i1 %.not19, label %21, label %19

19:                                               ; preds = %18
  %20 = getelementptr inbounds i8, ptr %.1, i64 -2
  store i8 45, ptr %20, align 1, !tbaa !45
  br label %21

21:                                               ; preds = %19, %18
  %.2 = phi ptr [ %20, %19 ], [ %16, %18 ]
  %22 = getelementptr inbounds nuw i8, ptr %4, i64 24
  %23 = ptrtoint ptr %22 to i64
  %24 = ptrtoint ptr %.2 to i64
  %25 = sub i64 %23, %24
  %26 = call ptr @lj_str_new(ptr noundef %0, ptr noundef nonnull %.2, i64 noundef %25) #14
  call void @llvm.lifetime.end.p0(i64 24, ptr nonnull %4) #14
  ret ptr %26
}